target datalayout = "e-m:e-p270:32:32-p271:32:32-p272:64:64-i64:64-i128:128-f80:128-n8:16:32:64-S128"
target triple = "x86_64-pc-linux-gnu"

%struct.mdc2_ctx_st = type { i32, [8 x i8], [8 x i8], [8 x i8], i32 }

; Function Attrs: nounwind uwtable
define i32 @MDC2_Init(ptr noundef %0) #0 {
  %2 = alloca ptr, align 8
  store ptr %0, ptr %2, align 8, !tbaa !3
  %3 = load ptr, ptr %2, align 8, !tbaa !3
  %4 = getelementptr inbounds nuw %struct.mdc2_ctx_st, ptr %3, i32 0, i32 0
  store i32 0, ptr %4, align 4, !tbaa !8
  %5 = load ptr, ptr %2, align 8, !tbaa !3
  %6 = getelementptr inbounds nuw %struct.mdc2_ctx_st, ptr %5, i32 0, i32 4
  store i32 1, ptr %6, align 4, !tbaa !11
  %7 = load ptr, ptr %2, align 8, !tbaa !3
  %8 = getelementptr inbounds nuw %struct.mdc2_ctx_st, ptr %7, i32 0, i32 2
  %9 = getelementptr inbounds [8 x i8], ptr %8, i64 0, i64 0
  call void @llvm.memset.p0.i64(ptr align 4 %9, i8 82, i64 8, i1 false)
  %10 = load ptr, ptr %2, align 8, !tbaa !3
  %11 = getelementptr inbounds nuw %struct.mdc2_ctx_st, ptr %10, i32 0, i32 3
  %12 = getelementptr inbounds [8 x i8], ptr %11, i64 0, i64 0
  call void @llvm.memset.p0.i64(ptr align 4 %12, i8 37, i64 8, i1 false)
  ret i32 1
}