; Function Attrs: mustprogress nofree norecurse nosync nounwind willreturn memory(argmem: write) uwtable
define noundef i32 @MDC2_Init(ptr noundef writeonly captures(none) initializes((0, 4), (12, 32)) %0) local_unnamed_addr #0 {
  store i32 0, ptr %0, align 4, !tbaa !3
  %2 = getelementptr inbounds nuw i8, ptr %0, i64 28
  store i32 1, ptr %2, align 4, !tbaa !8
  %3 = getelementptr inbounds nuw i8, ptr %0, i64 12
  store i64 5931894172722287186, ptr %3, align 4
  %4 = getelementptr inbounds nuw i8, ptr %0, i64 20
  store i64 2676586395008836901, ptr %4, align 4
  ret i32 1
}